target datalayout = "e-m:e-p270:32:32-p271:32:32-p272:64:64-i64:64-i128:128-f80:128-n8:16:32:64-S128"
target triple = "x86_64-pc-linux-gnu"

%class.colvardeps = type { ptr, %"class.std::__cxx11::basic_string", i32, %"class.std::vector.44", %"class.std::vector.49", %"class.std::vector.49" }
%"class.std::vector.44" = type { %"struct.std::_Vector_base.45" }
%"struct.std::_Vector_base.45" = type { %"struct.std::_Vector_base<colvardeps::feature_state, std::allocator<colvardeps::feature_state>>::_Vector_impl" }
%"struct.std::_Vector_base<colvardeps::feature_state, std::allocator<colvardeps::feature_state>>::_Vector_impl" = type { %"struct.std::_Vector_base<colvardeps::feature_state, std::allocator<colvardeps::feature_state>>::_Vector_impl_data" }
%"struct.std::_Vector_base<colvardeps::feature_state, std::allocator<colvardeps::feature_state>>::_Vector_impl_data" = type { ptr, ptr, ptr }
%"class.std::vector.49" = type { %"struct.std::_Vector_base.50" }
%"struct.std::_Vector_base.50" = type { %"struct.std::_Vector_base<colvardeps *, std::allocator<colvardeps *>>::_Vector_impl" }
%"struct.std::_Vector_base<colvardeps *, std::allocator<colvardeps *>>::_Vector_impl" = type { %"struct.std::_Vector_base<colvardeps *, std::allocator<colvardeps *>>::_Vector_impl_data" }
%"struct.std::_Vector_base<colvardeps *, std::allocator<colvardeps *>>::_Vector_impl_data" = type { ptr, ptr, ptr }
%"class.std::__cxx11::basic_string" = type { %"struct.std::__cxx11::basic_string<char>::_Alloc_hider", i64, %union.anon }
%"struct.std::__cxx11::basic_string<char>::_Alloc_hider" = type { ptr }
%union.anon = type { i64, [8 x i8] }
%class.colvarvalue = type { i32, double, %"class.colvarmodule::rvector", %"class.colvarmodule::quaternion", %"class.colvarmodule::vector1d", %"class.std::vector.10", %"class.std::vector.15", %"class.std::vector.15" }
%"class.colvarmodule::quaternion" = type { double, double, double, double }
%"class.colvarmodule::vector1d" = type { %"class.std::vector.5" }
%"class.std::vector.5" = type { %"struct.std::_Vector_base.6" }
%"struct.std::_Vector_base.6" = type { %"struct.std::_Vector_base<double, std::allocator<double>>::_Vector_impl" }
%"struct.std::_Vector_base<double, std::allocator<double>>::_Vector_impl" = type { %"struct.std::_Vector_base<double, std::allocator<double>>::_Vector_impl_data" }
%"struct.std::_Vector_base<double, std::allocator<double>>::_Vector_impl_data" = type { ptr, ptr, ptr }
%"class.std::vector.10" = type { %"struct.std::_Vector_base.11" }
%"struct.std::_Vector_base.11" = type { %"struct.std::_Vector_base<colvarvalue::Type, std::allocator<colvarvalue::Type>>::_Vector_impl" }
%"struct.std::_Vector_base<colvarvalue::Type, std::allocator<colvarvalue::Type>>::_Vector_impl" = type { %"struct.std::_Vector_base<colvarvalue::Type, std::allocator<colvarvalue::Type>>::_Vector_impl_data" }
%"struct.std::_Vector_base<colvarvalue::Type, std::allocator<colvarvalue::Type>>::_Vector_impl_data" = type { ptr, ptr, ptr }
%"class.std::vector.15" = type { %"struct.std::_Vector_base.16" }
%"struct.std::_Vector_base.16" = type { %"struct.std::_Vector_base<int, std::allocator<int>>::_Vector_impl" }
%"struct.std::_Vector_base<int, std::allocator<int>>::_Vector_impl" = type { %"struct.std::_Vector_base<int, std::allocator<int>>::_Vector_impl_data" }
%"struct.std::_Vector_base<int, std::allocator<int>>::_Vector_impl_data" = type { ptr, ptr, ptr }
%"class.colvarmodule::rvector" = type { double, double, double }
%"struct.colvardeps::feature_state" = type { i8, i8, i32, %"class.std::vector.15" }

; Function Attrs: inlinehint mustprogress nounwind uwtable
define linkonce_odr void @_ZN12colvarmodule7rvector3setEddd(ptr noundef nonnull align 8 dereferenceable(24) %0, double noundef %1, double noundef %2, double noundef %3) #8 comdat align 2 {
  %5 = alloca ptr, align 8
  %6 = alloca double, align 8
  %7 = alloca double, align 8
  %8 = alloca double, align 8
  store ptr %0, ptr %5, align 8, !tbaa !227
  store double %1, ptr %6, align 8, !tbaa !95
  store double %2, ptr %7, align 8, !tbaa !95
  store double %3, ptr %8, align 8, !tbaa !95
  %9 = load ptr, ptr %5, align 8
  %10 = load double, ptr %6, align 8, !tbaa !95
  %11 = getelementptr inbounds nuw %"class.colvarmodule::rvector", ptr %9, i32 0, i32 0
  store double %10, ptr %11, align 8, !tbaa !251
  %12 = load double, ptr %7, align 8, !tbaa !95
  %13 = getelementptr inbounds nuw %"class.colvarmodule::rvector", ptr %9, i32 0, i32 1
  store double %12, ptr %13, align 8, !tbaa !250
  %14 = load double, ptr %8, align 8, !tbaa !95
  %15 = getelementptr inbounds nuw %"class.colvarmodule::rvector", ptr %9, i32 0, i32 2
  store double %14, ptr %15, align 8, !tbaa !249
  ret void
}

; Function Attrs: inlinehint mustprogress uwtable
define linkonce_odr void @_ZN12colvarmodule7rvectorC2Eddd(ptr noundef nonnull align 8 dereferenceable(24) %0, double noundef %1, double noundef %2, double noundef %3) unnamed_addr #6 comdat align 2 {
  %5 = alloca ptr, align 8
  %6 = alloca double, align 8
  %7 = alloca double, align 8
  %8 = alloca double, align 8
  store ptr %0, ptr %5, align 8, !tbaa !227
  store double %1, ptr %6, align 8, !tbaa !95
  store double %2, ptr %7, align 8, !tbaa !95
  store double %3, ptr %8, align 8, !tbaa !95
  %9 = load ptr, ptr %5, align 8
  %10 = load double, ptr %6, align 8, !tbaa !95
  %11 = load double, ptr %7, align 8, !tbaa !95
  %12 = load double, ptr %8, align 8, !tbaa !95
  call void @_ZN12colvarmodule7rvector3setEddd(ptr noundef nonnull align 8 dereferenceable(24) %9, double noundef %10, double noundef %11, double noundef %12)
  ret void
}

; Function Attrs: mustprogress nounwind uwtable
define linkonce_odr noundef nonnull align 8 dereferenceable(32) ptr @_ZNKSt6vectorIN10colvardeps13feature_stateESaIS1_EEixEm(ptr noundef nonnull align 8 dereferenceable(24) %0, i64 noundef %1) #1 comdat align 2 {
  %3 = alloca ptr, align 8
  %4 = alloca i64, align 8
  store ptr %0, ptr %3, align 8, !tbaa !267
  store i64 %1, ptr %4, align 8, !tbaa !156
  %5 = load ptr, ptr %3, align 8
  %6 = getelementptr inbounds nuw %"struct.std::_Vector_base.45", ptr %5, i32 0, i32 0
  %7 = getelementptr inbounds nuw %"struct.std::_Vector_base<colvardeps::feature_state, std::allocator<colvardeps::feature_state>>::_Vector_impl_data", ptr %6, i32 0, i32 0
  %8 = load ptr, ptr %7, align 8, !tbaa !269
  %9 = load i64, ptr %4, align 8, !tbaa !156
  %10 = getelementptr inbounds nuw %"struct.colvardeps::feature_state", ptr %8, i64 %9
  ret ptr %10
}

; Function Attrs: inlinehint mustprogress uwtable
define linkonce_odr void @_ZmiRKN12colvarmodule7rvectorES2_(ptr dead_on_unwind noalias writable sret(%"class.colvarmodule::rvector") align 8 %0, ptr noundef nonnull align 8 dereferenceable(24) %1, ptr noundef nonnull align 8 dereferenceable(24) %2) #6 comdat {
  %4 = alloca ptr, align 8
  %5 = alloca ptr, align 8
  store ptr %1, ptr %4, align 8, !tbaa !227
  store ptr %2, ptr %5, align 8, !tbaa !227
  %6 = load ptr, ptr %4, align 8, !tbaa !227
  %7 = getelementptr inbounds nuw %"class.colvarmodule::rvector", ptr %6, i32 0, i32 0
  %8 = load double, ptr %7, align 8, !tbaa !251
  %9 = load ptr, ptr %5, align 8, !tbaa !227
  %10 = getelementptr inbounds nuw %"class.colvarmodule::rvector", ptr %9, i32 0, i32 0
  %11 = load double, ptr %10, align 8, !tbaa !251
  %12 = fsub double %8, %11
  %13 = load ptr, ptr %4, align 8, !tbaa !227
  %14 = getelementptr inbounds nuw %"class.colvarmodule::rvector", ptr %13, i32 0, i32 1
  %15 = load double, ptr %14, align 8, !tbaa !250
  %16 = load ptr, ptr %5, align 8, !tbaa !227
  %17 = getelementptr inbounds nuw %"class.colvarmodule::rvector", ptr %16, i32 0, i32 1
  %18 = load double, ptr %17, align 8, !tbaa !250
  %19 = fsub double %15, %18
  %20 = load ptr, ptr %4, align 8, !tbaa !227
  %21 = getelementptr inbounds nuw %"class.colvarmodule::rvector", ptr %20, i32 0, i32 2
  %22 = load double, ptr %21, align 8, !tbaa !249
  %23 = load ptr, ptr %5, align 8, !tbaa !227
  %24 = getelementptr inbounds nuw %"class.colvarmodule::rvector", ptr %23, i32 0, i32 2
  %25 = load double, ptr %24, align 8, !tbaa !249
  %26 = fsub double %22, %25
  call void @_ZN12colvarmodule7rvectorC2Eddd(ptr noundef nonnull align 8 dereferenceable(24) %0, double noundef %12, double noundef %19, double noundef %26)
  ret void
}

; Function Attrs: inlinehint mustprogress uwtable
define linkonce_odr void @_ZmldRKN12colvarmodule7rvectorE(ptr dead_on_unwind noalias writable sret(%"class.colvarmodule::rvector") align 8 %0, double noundef %1, ptr noundef nonnull align 8 dereferenceable(24) %2) #6 comdat {
  %4 = alloca double, align 8
  %5 = alloca ptr, align 8
  store double %1, ptr %4, align 8, !tbaa !95
  store ptr %2, ptr %5, align 8, !tbaa !227
  %6 = load double, ptr %4, align 8, !tbaa !95
  %7 = load ptr, ptr %5, align 8, !tbaa !227
  %8 = getelementptr inbounds nuw %"class.colvarmodule::rvector", ptr %7, i32 0, i32 0
  %9 = load double, ptr %8, align 8, !tbaa !251
  %10 = fmul double %6, %9
  %11 = load double, ptr %4, align 8, !tbaa !95
  %12 = load ptr, ptr %5, align 8, !tbaa !227
  %13 = getelementptr inbounds nuw %"class.colvarmodule::rvector", ptr %12, i32 0, i32 1
  %14 = load double, ptr %13, align 8, !tbaa !250
  %15 = fmul double %11, %14
  %16 = load double, ptr %4, align 8, !tbaa !95
  %17 = load ptr, ptr %5, align 8, !tbaa !227
  %18 = getelementptr inbounds nuw %"class.colvarmodule::rvector", ptr %17, i32 0, i32 2
  %19 = load double, ptr %18, align 8, !tbaa !249
  %20 = fmul double %16, %19
  call void @_ZN12colvarmodule7rvectorC2Eddd(ptr noundef nonnull align 8 dereferenceable(24) %0, double noundef %10, double noundef %15, double noundef %20)
  ret void
}

; Function Attrs: inlinehint mustprogress nounwind uwtable
define linkonce_odr noundef zeroext i1 @_ZNK10colvardeps10is_enabledEi(ptr noundef nonnull align 8 dereferenceable(120) %0, i32 noundef %1) #8 comdat align 2 {
  %3 = alloca ptr, align 8
  %4 = alloca i32, align 4
  store ptr %0, ptr %3, align 8, !tbaa !99
  store i32 %1, ptr %4, align 4, !tbaa !11
  %5 = load ptr, ptr %3, align 8
  %6 = getelementptr inbounds nuw %class.colvardeps, ptr %5, i32 0, i32 3
  %7 = load i32, ptr %4, align 4, !tbaa !11
  %8 = sext i32 %7 to i64
  %9 = call noundef nonnull align 8 dereferenceable(32) ptr @_ZNKSt6vectorIN10colvardeps13feature_stateESaIS1_EEixEm(ptr noundef nonnull align 8 dereferenceable(24) %6, i64 noundef %8) #17
  %10 = getelementptr inbounds nuw %"struct.colvardeps::feature_state", ptr %9, i32 0, i32 1
  %11 = load i8, ptr %10, align 1, !tbaa !264, !range !120, !noundef !121
  %12 = trunc i8 %11 to i1
  ret i1 %12
}

; Function Attrs: mustprogress uwtable
define void @_ZNK6colvar12distance_vec11dist2_lgradERK11colvarvalueS3_(ptr dead_on_unwind noalias writable sret(%class.colvarvalue) align 8 %0, ptr noundef nonnull align 8 dereferenceable(1648) %1, ptr noundef nonnull align 8 dereferenceable(168) %2, ptr noundef nonnull align 8 dereferenceable(168) %3) unnamed_addr #2 align 2 {
  %5 = alloca ptr, align 8
  %6 = alloca ptr, align 8
  %7 = alloca ptr, align 8
  %8 = alloca ptr, align 8
  %9 = alloca %"class.colvarmodule::rvector", align 8
  %10 = alloca %"class.colvarmodule::rvector", align 8
  %11 = alloca %"class.colvarmodule::rvector", align 8
  %12 = alloca %"class.colvarmodule::rvector", align 8
  store ptr %0, ptr %5, align 8
  store ptr %1, ptr %6, align 8, !tbaa !101
  store ptr %2, ptr %7, align 8, !tbaa !103
  store ptr %3, ptr %8, align 8, !tbaa !103
  %13 = load ptr, ptr %6, align 8
  %14 = getelementptr inbounds i8, ptr %13, i64 320
  %15 = call noundef zeroext i1 @_ZNK10colvardeps10is_enabledEi(ptr noundef nonnull align 8 dereferenceable(120) %14, i32 noundef 13)
  br i1 %15, label %16, label %21

16:                                               ; preds = %4
  call void @llvm.lifetime.start.p0(i64 24, ptr %9) #17
  call void @llvm.lifetime.start.p0(i64 24, ptr %10) #17
  %17 = load ptr, ptr %8, align 8, !tbaa !103
  %18 = getelementptr inbounds nuw %class.colvarvalue, ptr %17, i32 0, i32 2
  %19 = load ptr, ptr %7, align 8, !tbaa !103
  %20 = getelementptr inbounds nuw %class.colvarvalue, ptr %19, i32 0, i32 2
  call void @_ZN12colvarmodule17position_distanceERKNS_7rvectorES2_(ptr dead_on_unwind writable sret(%"class.colvarmodule::rvector") align 8 %10, ptr noundef nonnull align 8 dereferenceable(24) %18, ptr noundef nonnull align 8 dereferenceable(24) %20)
  call void @_ZmldRKN12colvarmodule7rvectorE(ptr dead_on_unwind writable sret(%"class.colvarmodule::rvector") align 8 %9, double noundef 2.000000e+00, ptr noundef nonnull align 8 dereferenceable(24) %10)
  call void @_ZN11colvarvalueC1ERKN12colvarmodule7rvectorENS_4TypeE(ptr noundef nonnull align 8 dereferenceable(168) %0, ptr noundef nonnull align 8 dereferenceable(24) %9, i32 noundef 2)
  call void @llvm.lifetime.end.p0(i64 24, ptr %10) #17
  call void @llvm.lifetime.end.p0(i64 24, ptr %9) #17
  br label %26

21:                                               ; preds = %4
  call void @llvm.lifetime.start.p0(i64 24, ptr %11) #17
  call void @llvm.lifetime.start.p0(i64 24, ptr %12) #17
  %22 = load ptr, ptr %8, align 8, !tbaa !103
  %23 = getelementptr inbounds nuw %class.colvarvalue, ptr %22, i32 0, i32 2
  %24 = load ptr, ptr %7, align 8, !tbaa !103
  %25 = getelementptr inbounds nuw %class.colvarvalue, ptr %24, i32 0, i32 2
  call void @_ZmiRKN12colvarmodule7rvectorES2_(ptr dead_on_unwind writable sret(%"class.colvarmodule::rvector") align 8 %12, ptr noundef nonnull align 8 dereferenceable(24) %23, ptr noundef nonnull align 8 dereferenceable(24) %25)
  call void @_ZmldRKN12colvarmodule7rvectorE(ptr dead_on_unwind writable sret(%"class.colvarmodule::rvector") align 8 %11, double noundef 2.000000e+00, ptr noundef nonnull align 8 dereferenceable(24) %12)
  call void @_ZN11colvarvalueC1ERKN12colvarmodule7rvectorENS_4TypeE(ptr noundef nonnull align 8 dereferenceable(168) %0, ptr noundef nonnull align 8 dereferenceable(24) %11, i32 noundef 2)
  call void @llvm.lifetime.end.p0(i64 24, ptr %12) #17
  call void @llvm.lifetime.end.p0(i64 24, ptr %11) #17
  br label %26

26:                                               ; preds = %21, %16
  ret void
}

; Function Attrs: mustprogress uwtable
define void @_ZNK6colvar12distance_vec11dist2_rgradERK11colvarvalueS3_(ptr dead_on_unwind noalias writable sret(%class.colvarvalue) align 8 %0, ptr noundef nonnull align 8 dereferenceable(1648) %1, ptr noundef nonnull align 8 dereferenceable(168) %2, ptr noundef nonnull align 8 dereferenceable(168) %3) unnamed_addr #2 align 2 {
  %5 = alloca ptr, align 8
  %6 = alloca ptr, align 8
  %7 = alloca ptr, align 8
  %8 = alloca ptr, align 8
  store ptr %0, ptr %5, align 8
  store ptr %1, ptr %6, align 8, !tbaa !101
  store ptr %2, ptr %7, align 8, !tbaa !103
  store ptr %3, ptr %8, align 8, !tbaa !103
  %9 = load ptr, ptr %6, align 8
  %10 = load ptr, ptr %8, align 8, !tbaa !103
  %11 = load ptr, ptr %7, align 8, !tbaa !103
  call void @_ZNK6colvar12distance_vec11dist2_lgradERK11colvarvalueS3_(ptr dead_on_unwind writable sret(%class.colvarvalue) align 8 %0, ptr noundef nonnull align 8 dereferenceable(1648) %9, ptr noundef nonnull align 8 dereferenceable(168) %10, ptr noundef nonnull align 8 dereferenceable(168) %11)
  ret void
}