; Function Attrs: mustprogress uwtable
define void @_ZNK6colvar12distance_vec11dist2_rgradERK11colvarvalueS3_(ptr dead_on_unwind noalias writable sret(%class.colvarvalue) align 8 %0, ptr noundef nonnull readonly align 8 captures(none) dereferenceable(1648) %1, ptr noundef nonnull align 8 dereferenceable(168) %2, ptr noundef nonnull align 8 dereferenceable(168) %3) unnamed_addr #2 align 2 {
  %5 = alloca %"class.colvarmodule::rvector", align 8
  %6 = alloca %"class.colvarmodule::rvector", align 8
  %7 = alloca %"class.colvarmodule::rvector", align 8
  %8 = getelementptr inbounds nuw i8, ptr %1, i64 368
  %9 = load ptr, ptr %8, align 8, !tbaa !88, !noalias !146
  %10 = getelementptr inbounds nuw i8, ptr %9, i64 417
  %11 = load i8, ptr %10, align 1, !tbaa !89, !range !91, !noalias !146, !noundef !92
  %12 = trunc nuw i8 %11 to i1
  br i1 %12, label %13, label %26

13:                                               ; preds = %4
  call void @llvm.lifetime.start.p0(i64 24, ptr nonnull %5) #26, !noalias !146
  call void @llvm.lifetime.start.p0(i64 24, ptr nonnull %6) #26, !noalias !146
  %14 = getelementptr inbounds nuw i8, ptr %2, i64 16
  %15 = getelementptr inbounds nuw i8, ptr %3, i64 16
  call void @_ZN12colvarmodule17position_distanceERKNS_7rvectorES2_(ptr dead_on_unwind nonnull writable sret(%"class.colvarmodule::rvector") align 8 %6, ptr noundef nonnull align 8 dereferenceable(24) %14, ptr noundef nonnull align 8 dereferenceable(24) %15), !noalias !146
  call void @llvm.experimental.noalias.scope.decl(metadata !149)
  %16 = load double, ptr %6, align 8, !tbaa !95, !noalias !152
  %17 = fmul double %16, 2.000000e+00
  %18 = getelementptr inbounds nuw i8, ptr %6, i64 8
  %19 = load double, ptr %18, align 8, !tbaa !96, !noalias !152
  %20 = fmul double %19, 2.000000e+00
  %21 = getelementptr inbounds nuw i8, ptr %6, i64 16
  %22 = load double, ptr %21, align 8, !tbaa !97, !noalias !152
  %23 = fmul double %22, 2.000000e+00
  store double %17, ptr %5, align 8, !tbaa !95, !alias.scope !149, !noalias !146
  %24 = getelementptr inbounds nuw i8, ptr %5, i64 8
  store double %20, ptr %24, align 8, !tbaa !96, !alias.scope !149, !noalias !146
  %25 = getelementptr inbounds nuw i8, ptr %5, i64 16
  store double %23, ptr %25, align 8, !tbaa !97, !alias.scope !149, !noalias !146
  call void @_ZN11colvarvalueC1ERKN12colvarmodule7rvectorENS_4TypeE(ptr noundef nonnull align 8 dereferenceable(168) %0, ptr noundef nonnull align 8 dereferenceable(24) %5, i32 noundef 2)
  call void @llvm.lifetime.end.p0(i64 24, ptr nonnull %6) #26, !noalias !146
  call void @llvm.lifetime.end.p0(i64 24, ptr nonnull %5) #26, !noalias !146
  br label %_ZNK6colvar12distance_vec11dist2_lgradERK11colvarvalueS3_.exit

26:                                               ; preds = %4
  call void @llvm.lifetime.start.p0(i64 24, ptr nonnull %7) #26, !noalias !146
  %27 = getelementptr inbounds nuw i8, ptr %2, i64 16
  %28 = getelementptr inbounds nuw i8, ptr %3, i64 16
  %29 = load double, ptr %27, align 8, !tbaa !95, !noalias !153
  %30 = load double, ptr %28, align 8, !tbaa !95, !noalias !153
  %31 = fsub double %29, %30
  %32 = getelementptr inbounds nuw i8, ptr %2, i64 24
  %33 = load double, ptr %32, align 8, !tbaa !96, !noalias !153
  %34 = getelementptr inbounds nuw i8, ptr %3, i64 24
  %35 = load double, ptr %34, align 8, !tbaa !96, !noalias !153
  %36 = fsub double %33, %35
  %37 = getelementptr inbounds nuw i8, ptr %2, i64 32
  %38 = load double, ptr %37, align 8, !tbaa !97, !noalias !153
  %39 = getelementptr inbounds nuw i8, ptr %3, i64 32
  %40 = load double, ptr %39, align 8, !tbaa !97, !noalias !153
  %41 = fsub double %38, %40
  %42 = fmul double %31, 2.000000e+00
  %43 = fmul double %36, 2.000000e+00
  %44 = fmul double %41, 2.000000e+00
  store double %42, ptr %7, align 8, !tbaa !95, !alias.scope !156, !noalias !146
  %45 = getelementptr inbounds nuw i8, ptr %7, i64 8
  store double %43, ptr %45, align 8, !tbaa !96, !alias.scope !156, !noalias !146
  %46 = getelementptr inbounds nuw i8, ptr %7, i64 16
  store double %44, ptr %46, align 8, !tbaa !97, !alias.scope !156, !noalias !146
  call void @_ZN11colvarvalueC1ERKN12colvarmodule7rvectorENS_4TypeE(ptr noundef nonnull align 8 dereferenceable(168) %0, ptr noundef nonnull align 8 dereferenceable(24) %7, i32 noundef 2)
  call void @llvm.lifetime.end.p0(i64 24, ptr nonnull %7) #26, !noalias !146
  br label %_ZNK6colvar12distance_vec11dist2_lgradERK11colvarvalueS3_.exit

_ZNK6colvar12distance_vec11dist2_lgradERK11colvarvalueS3_.exit: ; preds = %13, %26
  ret void
}